; ModuleID = '24/1687.c'
source_filename = "24/1687.c"
target datalayout = "e-m:e-p270:32:32-p271:32:32-p272:64:64-i64:64-f80:128-n8:16:32:64-S128"
target triple = "x86_64-pc-linux-gnu"

@.str = private unnamed_addr constant [3 x i8] c"%c\00", align 1
@.str.1 = private unnamed_addr constant [2 x i8] c"\0A\00", align 1

; Function Attrs: noinline nounwind uwtable
define dso_local i32 @main() #0 {
  %1 = alloca i32, align 4
  %2 = alloca [1000 x i8], align 16
  %3 = alloca [1000 x [1000 x i8]], align 16
  %4 = alloca i32, align 4
  %5 = alloca i32, align 4
  %6 = alloca i32, align 4
  %7 = alloca i32, align 4
  %8 = alloca i32, align 4
  %9 = alloca i32, align 4
  %10 = alloca [200 x i32], align 16
  %11 = alloca i32, align 4
  %12 = alloca i32, align 4
  store i32 0, i32* %1, align 4
  %13 = getelementptr inbounds [1000 x i8], [1000 x i8]* %2, i64 0, i64 0
  %14 = call i32 (i8*, ...) bitcast (i32 (...)* @gets to i32 (i8*, ...)*)(i8* %13)
  store i32 0, i32* %8, align 4
  store i32 0, i32* %9, align 4
  %15 = bitcast [200 x i32]* %10 to i8*
  call void @llvm.memset.p0i8.i64(i8* align 16 %15, i8 0, i64 800, i1 false)
  store i32 0, i32* %4, align 4
  br label %16

16:                                               ; preds = %107, %0
  %17 = load i32, i32* %4, align 4
  %18 = sext i32 %17 to i64
  %19 = getelementptr inbounds [1000 x i8], [1000 x i8]* %2, i64 0, i64 %18
  %20 = load i8, i8* %19, align 1
  %21 = sext i8 %20 to i32
  %22 = icmp ne i32 %21, 0
  br i1 %22, label %23, label %110

23:                                               ; preds = %16
  %24 = load i32, i32* %4, align 4
  %25 = sext i32 %24 to i64
  %26 = getelementptr inbounds [1000 x i8], [1000 x i8]* %2, i64 0, i64 %25
  %27 = load i8, i8* %26, align 1
  %28 = sext i8 %27 to i32
  %29 = icmp ne i32 %28, 32
  br i1 %29, label %30, label %55

30:                                               ; preds = %23
  %31 = load i32, i32* %4, align 4
  %32 = sext i32 %31 to i64
  %33 = getelementptr inbounds [1000 x i8], [1000 x i8]* %2, i64 0, i64 %32
  %34 = load i8, i8* %33, align 1
  %35 = sext i8 %34 to i32
  %36 = icmp ne i32 %35, 44
  br i1 %36, label %37, label %55

37:                                               ; preds = %30
  %38 = load i32, i32* %4, align 4
  %39 = sext i32 %38 to i64
  %40 = getelementptr inbounds [1000 x i8], [1000 x i8]* %2, i64 0, i64 %39
  %41 = load i8, i8* %40, align 1
  %42 = load i32, i32* %8, align 4
  %43 = sext i32 %42 to i64
  %44 = getelementptr inbounds [1000 x [1000 x i8]], [1000 x [1000 x i8]]* %3, i64 0, i64 %43
  %45 = load i32, i32* %9, align 4
  %46 = sext i32 %45 to i64
  %47 = getelementptr inbounds [1000 x i8], [1000 x i8]* %44, i64 0, i64 %46
  store i8 %41, i8* %47, align 1
  %48 = load i32, i32* %9, align 4
  %49 = add nsw i32 %48, 1
  store i32 %49, i32* %9, align 4
  %50 = load i32, i32* %8, align 4
  %51 = sext i32 %50 to i64
  %52 = getelementptr inbounds [200 x i32], [200 x i32]* %10, i64 0, i64 %51
  %53 = load i32, i32* %52, align 4
  %54 = add nsw i32 %53, 1
  store i32 %54, i32* %52, align 4
  br label %106

55:                                               ; preds = %30, %23
  %56 = load i32, i32* %4, align 4
  %57 = sext i32 %56 to i64
  %58 = getelementptr inbounds [1000 x i8], [1000 x i8]* %2, i64 0, i64 %57
  %59 = load i8, i8* %58, align 1
  %60 = sext i8 %59 to i32
  %61 = icmp eq i32 %60, 32
  br i1 %61, label %62, label %70

62:                                               ; preds = %55
  %63 = load i32, i32* %4, align 4
  %64 = sub nsw i32 %63, 1
  %65 = sext i32 %64 to i64
  %66 = getelementptr inbounds [1000 x i8], [1000 x i8]* %2, i64 0, i64 %65
  %67 = load i8, i8* %66, align 1
  %68 = sext i8 %67 to i32
  %69 = icmp ne i32 %68, 44
  br i1 %69, label %85, label %70

70:                                               ; preds = %62, %55
  %71 = load i32, i32* %4, align 4
  %72 = sext i32 %71 to i64
  %73 = getelementptr inbounds [1000 x i8], [1000 x i8]* %2, i64 0, i64 %72
  %74 = load i8, i8* %73, align 1
  %75 = sext i8 %74 to i32
  %76 = icmp eq i32 %75, 44
  br i1 %76, label %77, label %88

77:                                               ; preds = %70
  %78 = load i32, i32* %4, align 4
  %79 = add nsw i32 %78, 1
  %80 = sext i32 %79 to i64
  %81 = getelementptr inbounds [1000 x i8], [1000 x i8]* %2, i64 0, i64 %80
  %82 = load i8, i8* %81, align 1
  %83 = sext i8 %82 to i32
  %84 = icmp eq i32 %83, 32
  br i1 %84, label %85, label %88

85:                                               ; preds = %77, %62
  %86 = load i32, i32* %8, align 4
  %87 = add nsw i32 %86, 1
  store i32 %87, i32* %8, align 4
  store i32 0, i32* %9, align 4
  br label %105

88:                                               ; preds = %77, %70
  %89 = load i32, i32* %4, align 4
  %90 = sext i32 %89 to i64
  %91 = getelementptr inbounds [1000 x i8], [1000 x i8]* %2, i64 0, i64 %90
  %92 = load i8, i8* %91, align 1
  %93 = sext i8 %92 to i32
  %94 = icmp eq i32 %93, 32
  br i1 %94, label %95, label %104

95:                                               ; preds = %88
  %96 = load i32, i32* %4, align 4
  %97 = sub nsw i32 %96, 1
  %98 = sext i32 %97 to i64
  %99 = getelementptr inbounds [1000 x i8], [1000 x i8]* %2, i64 0, i64 %98
  %100 = load i8, i8* %99, align 1
  %101 = sext i8 %100 to i32
  %102 = icmp eq i32 %101, 44
  br i1 %102, label %103, label %104

103:                                              ; preds = %95
  br label %107

104:                                              ; preds = %95, %88
  br label %105

105:                                              ; preds = %104, %85
  br label %106

106:                                              ; preds = %105, %37
  br label %107

107:                                              ; preds = %106, %103
  %108 = load i32, i32* %4, align 4
  %109 = add nsw i32 %108, 1
  store i32 %109, i32* %4, align 4
  br label %16

110:                                              ; preds = %16
  %111 = getelementptr inbounds [200 x i32], [200 x i32]* %10, i64 0, i64 0
  %112 = load i32, i32* %111, align 16
  store i32 %112, i32* %11, align 4
  store i32 0, i32* %6, align 4
  store i32 0, i32* %4, align 4
  br label %113

113:                                              ; preds = %134, %110
  %114 = load i32, i32* %4, align 4
  %115 = load i32, i32* %8, align 4
  %116 = icmp slt i32 %114, %115
  br i1 %116, label %117, label %137

117:                                              ; preds = %113
  %118 = load i32, i32* %11, align 4
  %119 = load i32, i32* %4, align 4
  %120 = add nsw i32 %119, 1
  %121 = sext i32 %120 to i64
  %122 = getelementptr inbounds [200 x i32], [200 x i32]* %10, i64 0, i64 %121
  %123 = load i32, i32* %122, align 4
  %124 = icmp slt i32 %118, %123
  br i1 %124, label %125, label %133

125:                                              ; preds = %117
  %126 = load i32, i32* %4, align 4
  %127 = add nsw i32 %126, 1
  %128 = sext i32 %127 to i64
  %129 = getelementptr inbounds [200 x i32], [200 x i32]* %10, i64 0, i64 %128
  %130 = load i32, i32* %129, align 4
  store i32 %130, i32* %11, align 4
  %131 = load i32, i32* %4, align 4
  %132 = add nsw i32 %131, 1
  store i32 %132, i32* %6, align 4
  br label %133

133:                                              ; preds = %125, %117
  br label %134

134:                                              ; preds = %133
  %135 = load i32, i32* %4, align 4
  %136 = add nsw i32 %135, 1
  store i32 %136, i32* %4, align 4
  br label %113

137:                                              ; preds = %113
  store i32 0, i32* %5, align 4
  br label %138

138:                                              ; preds = %155, %137
  %139 = load i32, i32* %5, align 4
  %140 = load i32, i32* %6, align 4
  %141 = sext i32 %140 to i64
  %142 = getelementptr inbounds [200 x i32], [200 x i32]* %10, i64 0, i64 %141
  %143 = load i32, i32* %142, align 4
  %144 = icmp slt i32 %139, %143
  br i1 %144, label %145, label %158

145:                                              ; preds = %138
  %146 = load i32, i32* %6, align 4
  %147 = sext i32 %146 to i64
  %148 = getelementptr inbounds [1000 x [1000 x i8]], [1000 x [1000 x i8]]* %3, i64 0, i64 %147
  %149 = load i32, i32* %5, align 4
  %150 = sext i32 %149 to i64
  %151 = getelementptr inbounds [1000 x i8], [1000 x i8]* %148, i64 0, i64 %150
  %152 = load i8, i8* %151, align 1
  %153 = sext i8 %152 to i32
  %154 = call i32 (i8*, ...) @printf(i8* getelementptr inbounds ([3 x i8], [3 x i8]* @.str, i64 0, i64 0), i32 %153)
  br label %155

155:                                              ; preds = %145
  %156 = load i32, i32* %5, align 4
  %157 = add nsw i32 %156, 1
  store i32 %157, i32* %5, align 4
  br label %138

158:                                              ; preds = %138
  %159 = call i32 (i8*, ...) @printf(i8* getelementptr inbounds ([2 x i8], [2 x i8]* @.str.1, i64 0, i64 0))
  %160 = getelementptr inbounds [200 x i32], [200 x i32]* %10, i64 0, i64 0
  %161 = load i32, i32* %160, align 16
  store i32 %161, i32* %12, align 4
  store i32 0, i32* %7, align 4
  store i32 0, i32* %4, align 4
  br label %162

162:                                              ; preds = %183, %158
  %163 = load i32, i32* %4, align 4
  %164 = load i32, i32* %8, align 4
  %165 = icmp slt i32 %163, %164
  br i1 %165, label %166, label %186

166:                                              ; preds = %162
  %167 = load i32, i32* %12, align 4
  %168 = load i32, i32* %4, align 4
  %169 = add nsw i32 %168, 1
  %170 = sext i32 %169 to i64
  %171 = getelementptr inbounds [200 x i32], [200 x i32]* %10, i64 0, i64 %170
  %172 = load i32, i32* %171, align 4
  %173 = icmp sgt i32 %167, %172
  br i1 %173, label %174, label %182

174:                                              ; preds = %166
  %175 = load i32, i32* %4, align 4
  %176 = add nsw i32 %175, 1
  %177 = sext i32 %176 to i64
  %178 = getelementptr inbounds [200 x i32], [200 x i32]* %10, i64 0, i64 %177
  %179 = load i32, i32* %178, align 4
  store i32 %179, i32* %12, align 4
  %180 = load i32, i32* %4, align 4
  %181 = add nsw i32 %180, 1
  store i32 %181, i32* %7, align 4
  br label %182

182:                                              ; preds = %174, %166
  br label %183

183:                                              ; preds = %182
  %184 = load i32, i32* %4, align 4
  %185 = add nsw i32 %184, 1
  store i32 %185, i32* %4, align 4
  br label %162

186:                                              ; preds = %162
  store i32 0, i32* %5, align 4
  br label %187

187:                                              ; preds = %204, %186
  %188 = load i32, i32* %5, align 4
  %189 = load i32, i32* %7, align 4
  %190 = sext i32 %189 to i64
  %191 = getelementptr inbounds [200 x i32], [200 x i32]* %10, i64 0, i64 %190
  %192 = load i32, i32* %191, align 4
  %193 = icmp slt i32 %188, %192
  br i1 %193, label %194, label %207

194:                                              ; preds = %187
  %195 = load i32, i32* %7, align 4
  %196 = sext i32 %195 to i64
  %197 = getelementptr inbounds [1000 x [1000 x i8]], [1000 x [1000 x i8]]* %3, i64 0, i64 %196
  %198 = load i32, i32* %5, align 4
  %199 = sext i32 %198 to i64
  %200 = getelementptr inbounds [1000 x i8], [1000 x i8]* %197, i64 0, i64 %199
  %201 = load i8, i8* %200, align 1
  %202 = sext i8 %201 to i32
  %203 = call i32 (i8*, ...) @printf(i8* getelementptr inbounds ([3 x i8], [3 x i8]* @.str, i64 0, i64 0), i32 %202)
  br label %204

204:                                              ; preds = %194
  %205 = load i32, i32* %5, align 4
  %206 = add nsw i32 %205, 1
  store i32 %206, i32* %5, align 4
  br label %187

207:                                              ; preds = %187
  ret i32 0
}

declare dso_local i32 @gets(...) #1

; Function Attrs: argmemonly nounwind willreturn
declare void @llvm.memset.p0i8.i64(i8* nocapture writeonly, i8, i64, i1 immarg) #2

declare dso_local i32 @printf(i8*, ...) #1


!llvm.module.flags = !{!0}
!llvm.ident = !{!1}

!0 = !{i32 1, !"wchar_size", i32 4}
!1 = !{!"clang version 10.0.0-4ubuntu1 "}
